; Function Attrs: mustprogress nofree nounwind willreturn memory(readwrite, inaccessiblemem: write) uwtable
define internal noundef i32 @fse(double noundef %0, ptr noundef readonly captures(none) %1, ptr noundef readonly captures(none) %2, ptr readnone captures(none) %3) #5 {
  %5 = load ptr, ptr %1, align 8, !tbaa !18
  %6 = getelementptr inbounds nuw i8, ptr %5, i64 16
  %7 = load ptr, ptr %6, align 8, !tbaa !21
  %8 = load double, ptr %7, align 8, !tbaa !12
  %9 = tail call double @sin(double noundef %0) #9, !tbaa !26
  %10 = fmul double %9, -5.000000e-01
  %11 = fmul double %8, 2.000000e+00
  %12 = fdiv double %10, %11
  %13 = load ptr, ptr %2, align 8, !tbaa !18
  %14 = getelementptr inbounds nuw i8, ptr %13, i64 16
  %15 = load ptr, ptr %14, align 8, !tbaa !21
  store double %12, ptr %15, align 8, !tbaa !12
  %16 = getelementptr inbounds nuw i8, ptr %15, i64 8
  store double 0.000000e+00, ptr %16, align 8, !tbaa !12
  ret i32 0
}